target datalayout = "e-m:e-p270:32:32-p271:32:32-p272:64:64-i64:64-i128:128-f80:128-n8:16:32:64-S128"
target triple = "x86_64-pc-linux-gnu"

%"struct.faiss::ClusteringParameters" = type { i32, i32, i8, i8, i8, i8, i8, i32, i32, i32, i64 }
%"class.std::vector" = type { %"struct.std::_Vector_base" }
%"struct.std::_Vector_base" = type { %"struct.std::_Vector_base<float, std::allocator<float>>::_Vector_impl" }
%"struct.std::_Vector_base<float, std::allocator<float>>::_Vector_impl" = type { %"struct.std::_Vector_base<float, std::allocator<float>>::_Vector_impl_data" }
%"struct.std::_Vector_base<float, std::allocator<float>>::_Vector_impl_data" = type { ptr, ptr, ptr }
%"struct.faiss::ProductQuantizer" = type { %"struct.faiss::Quantizer", i64, i64, i64, i64, i8, i32, %"struct.faiss::ClusteringParameters", ptr, %"class.std::vector", %"class.std::vector", %"class.std::vector", %"class.std::vector" }
%"struct.faiss::Quantizer" = type { ptr, i64, i64 }

; Function Attrs: mustprogress nounwind uwtable
define linkonce_odr noundef nonnull align 4 dereferenceable(4) ptr @_ZNSt6vectorIfSaIfEEixEm(ptr noundef nonnull align 8 dereferenceable(24) %0, i64 noundef %1) #1 comdat align 2 {
  %3 = alloca ptr, align 8
  %4 = alloca i64, align 8
  store ptr %0, ptr %3, align 8
  store i64 %1, ptr %4, align 8
  %5 = load ptr, ptr %3, align 8
  %6 = getelementptr inbounds %"struct.std::_Vector_base", ptr %5, i32 0, i32 0
  %7 = getelementptr inbounds %"struct.std::_Vector_base<float, std::allocator<float>>::_Vector_impl_data", ptr %6, i32 0, i32 0
  %8 = load ptr, ptr %7, align 8
  %9 = load i64, ptr %4, align 8
  %10 = getelementptr inbounds float, ptr %8, i64 %9
  ret ptr %10
}

; Function Attrs: mustprogress nounwind uwtable
define linkonce_odr noundef ptr @_ZN5faiss16ProductQuantizer13get_centroidsEmm(ptr noundef nonnull align 8 dereferenceable(208) %0, i64 noundef %1, i64 noundef %2) #1 comdat align 2 {
  %4 = alloca ptr, align 8
  %5 = alloca i64, align 8
  %6 = alloca i64, align 8
  store ptr %0, ptr %4, align 8
  store i64 %1, ptr %5, align 8
  store i64 %2, ptr %6, align 8
  %7 = load ptr, ptr %4, align 8
  %8 = getelementptr inbounds %"struct.faiss::ProductQuantizer", ptr %7, i32 0, i32 9
  %9 = load i64, ptr %5, align 8
  %10 = getelementptr inbounds %"struct.faiss::ProductQuantizer", ptr %7, i32 0, i32 4
  %11 = load i64, ptr %10, align 8
  %12 = mul i64 %9, %11
  %13 = load i64, ptr %6, align 8
  %14 = add i64 %12, %13
  %15 = getelementptr inbounds %"struct.faiss::ProductQuantizer", ptr %7, i32 0, i32 3
  %16 = load i64, ptr %15, align 8
  %17 = mul i64 %14, %16
  %18 = call noundef nonnull align 4 dereferenceable(4) ptr @_ZNSt6vectorIfSaIfEEixEm(ptr noundef nonnull align 8 dereferenceable(24) %8, i64 noundef %17) #12
  ret ptr %18
}

; Function Attrs: mustprogress uwtable
define void @_ZN5faiss16ProductQuantizer10set_paramsEPKfi(ptr noundef nonnull align 8 dereferenceable(208) %0, ptr noundef %1, i32 noundef %2) #0 align 2 {
  %4 = alloca ptr, align 8
  %5 = alloca ptr, align 8
  %6 = alloca i32, align 4
  store ptr %0, ptr %4, align 8
  store ptr %1, ptr %5, align 8
  store i32 %2, ptr %6, align 4
  %7 = load ptr, ptr %4, align 8
  %8 = load i32, ptr %6, align 4
  %9 = sext i32 %8 to i64
  %10 = call noundef ptr @_ZN5faiss16ProductQuantizer13get_centroidsEmm(ptr noundef nonnull align 8 dereferenceable(208) %7, i64 noundef %9, i64 noundef 0)
  %11 = load ptr, ptr %5, align 8
  %12 = getelementptr inbounds %"struct.faiss::ProductQuantizer", ptr %7, i32 0, i32 4
  %13 = load i64, ptr %12, align 8
  %14 = getelementptr inbounds %"struct.faiss::ProductQuantizer", ptr %7, i32 0, i32 3
  %15 = load i64, ptr %14, align 8
  %16 = mul i64 %13, %15
  %17 = mul i64 %16, 4
  call void @llvm.memcpy.p0.p0.i64(ptr align 4 %10, ptr align 4 %11, i64 %17, i1 false)
  ret void
}