; Function Attrs: mustprogress nofree norecurse nosync nounwind willreturn memory(readwrite, inaccessiblemem: none) uwtable
define void @_ZN5faiss16ProductQuantizer10set_paramsEPKfi(ptr nocapture noundef nonnull readonly align 8 dereferenceable(208) %0, ptr nocapture noundef readonly %1, i32 noundef %2) local_unnamed_addr #11 align 2 {
  %4 = sext i32 %2 to i64
  %5 = getelementptr inbounds i8, ptr %0, i64 112
  %6 = getelementptr inbounds i8, ptr %0, i64 48
  %7 = load i64, ptr %6, align 8
  %8 = getelementptr inbounds i8, ptr %0, i64 40
  %9 = load i64, ptr %8, align 8
  %10 = mul i64 %9, %7
  %11 = mul i64 %10, %4
  %12 = load ptr, ptr %5, align 8
  %13 = getelementptr inbounds float, ptr %12, i64 %11
  %14 = shl i64 %10, 2
  tail call void @llvm.memcpy.p0.p0.i64(ptr align 4 %13, ptr align 4 %1, i64 %14, i1 false)
  ret void
}